target datalayout = "e-m:e-p270:32:32-p271:32:32-p272:64:64-i64:64-i128:128-f80:128-n8:16:32:64-S128"
target triple = "x86_64-pc-linux-gnu"

@.str = private unnamed_addr constant [3 x i8] c"rb\00", align 1
@.str.1 = private unnamed_addr constant [62 x i8] c"Mop_ManLoadFile(): The file is unavailable (absent or open).\0A\00", align 1
@.str.2 = private unnamed_addr constant [39 x i8] c"Mop_ManLoadFile(): The file is empty.\0A\00", align 1
@.str.3 = private unnamed_addr constant [2 x i8] c"\0A\00", align 1

; Function Attrs: nounwind uwtable
define ptr @Mop_ManLoadFile(ptr noundef %0) #0 {
  %2 = alloca ptr, align 8
  %3 = alloca ptr, align 8
  %4 = alloca ptr, align 8
  %5 = alloca i32, align 4
  %6 = alloca i32, align 4
  %7 = alloca ptr, align 8
  %8 = alloca i32, align 4
  store ptr %0, ptr %3, align 8, !tbaa !32
  call void @llvm.lifetime.start.p0(i64 8, ptr %4) #13
  call void @llvm.lifetime.start.p0(i64 4, ptr %5) #13
  call void @llvm.lifetime.start.p0(i64 4, ptr %6) #13
  call void @llvm.lifetime.start.p0(i64 8, ptr %7) #13
  %9 = load ptr, ptr %3, align 8, !tbaa !32
  %10 = call noalias ptr @fopen(ptr noundef %9, ptr noundef @.str)
  store ptr %10, ptr %4, align 8, !tbaa !34
  %11 = load ptr, ptr %4, align 8, !tbaa !34
  %12 = icmp eq ptr %11, null
  br i1 %12, label %13, label %14

13:                                               ; preds = %1
  call void (i32, ptr, ...) @Abc_Print(i32 noundef -1, ptr noundef @.str.1)
  store ptr null, ptr %2, align 8
  store i32 1, ptr %8, align 4
  br label %44

14:                                               ; preds = %1
  %15 = load ptr, ptr %4, align 8, !tbaa !34
  %16 = call i32 @fseek(ptr noundef %15, i64 noundef 0, i32 noundef 2)
  %17 = load ptr, ptr %4, align 8, !tbaa !34
  %18 = call i64 @ftell(ptr noundef %17)
  %19 = trunc i64 %18 to i32
  store i32 %19, ptr %5, align 4, !tbaa !3
  %20 = load i32, ptr %5, align 4, !tbaa !3
  %21 = icmp eq i32 %20, 0
  br i1 %21, label %22, label %23

22:                                               ; preds = %14
  call void (i32, ptr, ...) @Abc_Print(i32 noundef -1, ptr noundef @.str.2)
  store ptr null, ptr %2, align 8
  store i32 1, ptr %8, align 4
  br label %44

23:                                               ; preds = %14
  %24 = load i32, ptr %5, align 4, !tbaa !3
  %25 = add nsw i32 %24, 10
  %26 = sext i32 %25 to i64
  %27 = mul i64 1, %26
  %28 = call noalias ptr @malloc(i64 noundef %27) #15
  store ptr %28, ptr %7, align 8, !tbaa !32
  %29 = load ptr, ptr %4, align 8, !tbaa !34
  call void @rewind(ptr noundef %29)
  %30 = load ptr, ptr %7, align 8, !tbaa !32
  %31 = load i32, ptr %5, align 4, !tbaa !3
  %32 = sext i32 %31 to i64
  %33 = load ptr, ptr %4, align 8, !tbaa !34
  %34 = call i64 @fread(ptr noundef %30, i64 noundef %32, i64 noundef 1, ptr noundef %33)
  %35 = trunc i64 %34 to i32
  store i32 %35, ptr %6, align 4, !tbaa !3
  %36 = load ptr, ptr %4, align 8, !tbaa !34
  %37 = call i32 @fclose(ptr noundef %36)
  %38 = load ptr, ptr %7, align 8, !tbaa !32
  %39 = load i32, ptr %5, align 4, !tbaa !3
  %40 = sext i32 %39 to i64
  %41 = getelementptr inbounds i8, ptr %38, i64 %40
  %42 = call ptr @strcpy(ptr noundef %41, ptr noundef @.str.3) #13
  %43 = load ptr, ptr %7, align 8, !tbaa !32
  store ptr %43, ptr %2, align 8
  store i32 1, ptr %8, align 4
  br label %44

44:                                               ; preds = %23, %22, %13
  call void @llvm.lifetime.end.p0(i64 8, ptr %7) #13
  call void @llvm.lifetime.end.p0(i64 4, ptr %6) #13
  call void @llvm.lifetime.end.p0(i64 4, ptr %5) #13
  call void @llvm.lifetime.end.p0(i64 8, ptr %4) #13
  %45 = load ptr, ptr %2, align 8
  ret ptr %45
}