; Function Attrs: nounwind uwtable
define noalias noundef ptr @Mop_ManLoadFile(ptr noundef readonly captures(none) %0) local_unnamed_addr #5 {
  %2 = tail call noalias ptr @fopen(ptr noundef %0, ptr noundef nonnull @.str)
  %3 = icmp eq ptr %2, null
  br i1 %3, label %4, label %5

4:                                                ; preds = %1
  tail call void (i32, ptr, ...) @Abc_Print(i32 noundef -1, ptr noundef nonnull @.str.1)
  br label %19

5:                                                ; preds = %1
  %6 = tail call i32 @fseek(ptr noundef nonnull %2, i64 noundef 0, i32 noundef 2)
  %7 = tail call i64 @ftell(ptr noundef nonnull %2)
  %8 = and i64 %7, 4294967295
  %9 = icmp eq i64 %8, 0
  br i1 %9, label %10, label %11

10:                                               ; preds = %5
  tail call void (i32, ptr, ...) @Abc_Print(i32 noundef -1, ptr noundef nonnull @.str.2)
  br label %19

11:                                               ; preds = %5
  %12 = shl i64 %7, 32
  %sext = add i64 %12, 42949672960
  %13 = ashr exact i64 %sext, 32
  %14 = tail call noalias ptr @malloc(i64 noundef %13) #22
  tail call void @rewind(ptr noundef nonnull %2)
  %15 = ashr exact i64 %12, 32
  %16 = tail call i64 @fread(ptr noundef %14, i64 noundef %15, i64 noundef 1, ptr noundef nonnull %2)
  %17 = tail call i32 @fclose(ptr noundef nonnull %2)
  %18 = getelementptr inbounds i8, ptr %14, i64 %15
  store i16 10, ptr %18, align 1
  br label %19

19:                                               ; preds = %11, %10, %4
  %.0 = phi ptr [ null, %4 ], [ null, %10 ], [ %14, %11 ]
  ret ptr %.0
}